Certificate:
    Data:
        Version: 3 (0x2)
        Serial Number: 4096 (0x1000)
    Signature Algorithm: sha256WithRSAEncryption
        Issuer: C=US, ST=NY, L=Syracuse, O=SimpleSDFS CA ORG, OU=CA UNIT, CN=www.sdfs-ca.com/emailAddress=aapatil@syr.edu
        Validity
            Not Before: May  3 17:50:10 2017 GMT
            Not After : May  3 17:50:10 2018 GMT
        Subject: C=US, ST=NY, L=Syracuse, O=Simple SDFS ORG, OU=Research, CN=www.simplesdfs.com/emailAddress=aapatil@syr.edu
        Subject Public Key Info:
            Public Key Algorithm: rsaEncryption
                Public-Key: (2048 bit)
                Modulus:
                    00:c4:4d:f3:8d:03:c1:1c:3e:34:17:10:68:4e:c8:
                    ac:81:fc:02:6a:b5:dd:c1:9d:df:d1:40:a4:ba:e2:
                    ce:16:df:0e:73:c9:05:f3:5b:e4:a4:1f:a6:92:16:
                    e0:38:d0:33:53:f1:31:cd:dd:5d:d7:fd:8c:00:37:
                    e8:54:69:3e:a1:96:72:25:0c:67:81:b5:88:81:ca:
                    4d:96:b7:92:85:45:13:d8:24:39:81:fc:97:1a:e3:
                    af:60:89:76:df:bc:ac:c7:09:39:1f:0b:91:49:9e:
                    39:fd:47:36:a7:8e:33:7c:e5:29:e0:52:0f:a6:d6:
                    b7:60:93:5a:6a:e9:a4:e8:a0:7e:49:71:a9:5c:b8:
                    e1:35:2a:8c:47:03:bd:d2:71:27:71:c6:db:9f:82:
                    37:f3:81:4d:ae:0b:fc:2c:d5:7f:3b:ec:6d:4f:e4:
                    9a:b2:21:eb:52:75:18:39:bb:51:28:ed:52:f3:50:
                    73:2b:35:38:64:92:dd:93:0e:e7:a8:90:1f:fb:c4:
                    de:05:2a:e3:21:ba:d6:c5:d3:a4:80:ba:33:a4:d7:
                    b2:00:48:ea:be:9d:36:ab:86:07:55:43:92:d2:2f:
                    04:5b:a8:50:a4:c7:0e:3c:85:9d:f3:4e:ab:67:d0:
                    e7:74:44:a8:d1:cb:7a:ec:00:05:5e:65:90:11:c3:
                    f9:31
                Exponent: 65537 (0x10001)
        X509v3 extensions:
            X509v3 Basic Constraints: 
                CA:FALSE
            Netscape Comment: 
                OpenSSL Generated Certificate
            X509v3 Subject Key Identifier: 
                34:52:8B:51:E7:14:25:8E:91:C6:F4:01:AE:12:F2:06:B9:CB:4C:53
            X509v3 Authority Key Identifier: 
                keyid:30:35:59:7D:A3:E8:41:1F:9A:E2:AD:A7:7B:CB:E1:A9:82:9F:FF:DB

    Signature Algorithm: sha256WithRSAEncryption
         e0:79:3b:28:52:23:33:0f:81:72:05:d2:73:8d:2d:ce:f7:60:
         d0:bc:17:98:3e:cd:2b:3b:2b:54:cc:03:65:2b:a1:d4:5d:9e:
         df:cf:f7:c0:65:dd:3c:ac:5f:d8:8a:af:a3:31:ff:99:cf:01:
         54:17:1b:5b:dd:2a:52:97:28:0b:66:10:ff:8c:0e:5a:87:87:
         2b:a2:17:c9:69:1b:e8:f6:15:02:67:64:54:b4:6d:3d:3d:37:
         61:16:08:5c:10:ea:20:35:0f:41:8c:8e:d6:46:54:cf:4e:45:
         b3:57:de:97:e9:25:e1:c9:9c:bb:6f:8d:56:83:93:57:d3:6b:
         7e:a2:4e:4f:c3:05:14:51:e3:1b:69:5b:ca:cf:6d:35:5e:6a:
         f0:7f:c3:a7:0e:39:97:a0:bb:54:68:61:9d:fd:16:6c:3a:cf:
         ed:4e:cc:3f:56:b0:0a:3f:b5:ae:e6:ed:52:d2:28:73:11:20:
         5d:0d:1b:16:08:40:f2:e6:a9:90:a4:14:93:bf:28:e0:d4:d7:
         66:ca:e8:1a:41:a6:63:4a:5d:9e:46:66:a8:23:91:29:5f:9d:
         e0:d6:c7:28:ed:aa:6c:5a:11:59:96:23:0e:12:1c:25:52:7b:
         f5:55:91:e8:6b:9f:c8:40:1c:fd:63:bc:27:c5:38:98:7f:b3:
         19:19:7c:26
-----BEGIN CERTIFICATE-----
MIIEJTCCAw2gAwIBAgICEAAwDQYJKoZIhvcNAQELBQAwgZUxCzAJBgNVBAYTAlVT
MQswCQYDVQQIDAJOWTERMA8GA1UEBwwIU3lyYWN1c2UxGjAYBgNVBAoMEVNpbXBs
ZVNERlMgQ0EgT1JHMRAwDgYDVQQLDAdDQSBVTklUMRgwFgYDVQQDDA93d3cuc2Rm
cy1jYS5jb20xHjAcBgkqhkiG9w0BCQEWD2FhcGF0aWxAc3lyLmVkdTAeFw0xNzA1
MDMxNzUwMTBaFw0xODA1MDMxNzUwMTBaMIGXMQswCQYDVQQGEwJVUzELMAkGA1UE
CAwCTlkxETAPBgNVBAcMCFN5cmFjdXNlMRgwFgYDVQQKDA9TaW1wbGUgU0RGUyBP
UkcxETAPBgNVBAsMCFJlc2VhcmNoMRswGQYDVQQDDBJ3d3cuc2ltcGxlc2Rmcy5j
b20xHjAcBgkqhkiG9w0BCQEWD2FhcGF0aWxAc3lyLmVkdTCCASIwDQYJKoZIhvcN
AQEBBQADggEPADCCAQoCggEBAMRN840DwRw+NBcQaE7IrIH8Amq13cGd39FApLri
zhbfDnPJBfNb5KQfppIW4DjQM1PxMc3dXdf9jAA36FRpPqGWciUMZ4G1iIHKTZa3
koVFE9gkOYH8lxrjr2CJdt+8rMcJOR8LkUmeOf1HNqeOM3zlKeBSD6bWt2CTWmrp
pOigfklxqVy44TUqjEcDvdJxJ3HG25+CN/OBTa4L/CzVfzvsbU/kmrIh61J1GDm7
USjtUvNQcys1OGSS3ZMO56iQH/vE3gUq4yG61sXTpIC6M6TXsgBI6r6dNquGB1VD
ktIvBFuoUKTHDjyFnfNOq2fQ53REqNHLeuwABV5lkBHD+TECAwEAAaN7MHkwCQYD
VR0TBAIwADAsBglghkgBhvhCAQ0EHxYdT3BlblNTTCBHZW5lcmF0ZWQgQ2VydGlm
aWNhdGUwHQYDVR0OBBYEFDRSi1HnFCWOkcb0Aa4S8ga5y0xTMB8GA1UdIwQYMBaA
FDA1WX2j6EEfmuKtp3vL4amCn//bMA0GCSqGSIb3DQEBCwUAA4IBAQDgeTsoUiMz
D4FyBdJzjS3O92DQvBeYPs0rOytUzANlK6HUXZ7fz/fAZd08rF/Yiq+jMf+ZzwFU
Fxtb3SpSlygLZhD/jA5ah4crohfJaRvo9hUCZ2RUtG09PTdhFghcEOogNQ9BjI7W
RlTPTkWzV96X6SXhyZy7b41Wg5NX02t+ok5PwwUUUeMbaVvKz201Xmrwf8OnDjmX
oLtUaGGd/RZsOs/tTsw/VrAKP7Wu5u1S0ihzESBdDRsWCEDy5qmQpBSTvyjg1Ndm
yugaQaZjSl2eRmaoI5EpX53g1sco7apsWhFZliMOEhwlUnv1VZHoa5/IQBz9Y7wn
xTiYf7MZGXwm
-----END CERTIFICATE-----
