Certificate Request:
    Data:
        Version: 0 (0x0)
        Subject: C=US, ST=NY, L=Syracuse, O=Simple SDFS ORG, OU=Research, CN=www.simplesdfs.com/emailAddress=aapatil@syr.edu
        Subject Public Key Info:
            Public Key Algorithm: rsaEncryption
                Public-Key: (2048 bit)
                Modulus:
                    00:c4:4d:f3:8d:03:c1:1c:3e:34:17:10:68:4e:c8:
                    ac:81:fc:02:6a:b5:dd:c1:9d:df:d1:40:a4:ba:e2:
                    ce:16:df:0e:73:c9:05:f3:5b:e4:a4:1f:a6:92:16:
                    e0:38:d0:33:53:f1:31:cd:dd:5d:d7:fd:8c:00:37:
                    e8:54:69:3e:a1:96:72:25:0c:67:81:b5:88:81:ca:
                    4d:96:b7:92:85:45:13:d8:24:39:81:fc:97:1a:e3:
                    af:60:89:76:df:bc:ac:c7:09:39:1f:0b:91:49:9e:
                    39:fd:47:36:a7:8e:33:7c:e5:29:e0:52:0f:a6:d6:
                    b7:60:93:5a:6a:e9:a4:e8:a0:7e:49:71:a9:5c:b8:
                    e1:35:2a:8c:47:03:bd:d2:71:27:71:c6:db:9f:82:
                    37:f3:81:4d:ae:0b:fc:2c:d5:7f:3b:ec:6d:4f:e4:
                    9a:b2:21:eb:52:75:18:39:bb:51:28:ed:52:f3:50:
                    73:2b:35:38:64:92:dd:93:0e:e7:a8:90:1f:fb:c4:
                    de:05:2a:e3:21:ba:d6:c5:d3:a4:80:ba:33:a4:d7:
                    b2:00:48:ea:be:9d:36:ab:86:07:55:43:92:d2:2f:
                    04:5b:a8:50:a4:c7:0e:3c:85:9d:f3:4e:ab:67:d0:
                    e7:74:44:a8:d1:cb:7a:ec:00:05:5e:65:90:11:c3:
                    f9:31
                Exponent: 65537 (0x10001)
        Attributes:
            a0:00
    Signature Algorithm: sha256WithRSAEncryption
         b0:22:1b:6b:95:ee:dc:fe:f9:c3:73:3f:c7:f0:62:c7:19:5c:
         e1:85:16:9f:21:56:e9:3c:b4:d9:c9:78:09:31:b6:8a:d8:de:
         d4:24:b5:ff:16:2d:f6:5a:7b:0e:ab:1a:1a:f7:69:93:de:79:
         47:50:af:76:41:b0:75:ec:01:f1:a4:f7:62:b6:d7:e9:6c:62:
         d2:e9:f0:af:0d:fb:49:b3:28:ba:2c:a2:fd:21:0e:d6:b2:b8:
         00:28:7c:06:86:0f:a4:a5:90:00:fb:39:2d:82:b1:1b:b5:bf:
         3f:41:1b:ef:f6:4a:bc:a5:3d:79:01:d3:af:d4:d9:0f:3a:49:
         3c:1c:4b:9d:ef:29:07:f6:08:ac:6e:97:a9:5b:df:07:df:74:
         ec:4c:1c:5f:db:a3:bd:a4:c5:8a:ea:75:4b:46:a1:43:35:12:
         3c:8f:24:0f:9d:0f:f8:b7:c2:2b:29:e9:c5:88:f7:b4:e2:63:
         3f:d3:9e:90:f5:2a:a1:09:0a:24:76:96:a4:8e:4b:69:8a:47:
         b0:c1:7b:f0:85:c4:a2:91:76:34:14:b0:06:70:97:ce:62:90:
         89:e2:43:0d:51:02:1f:40:6a:46:fd:49:da:73:f9:14:0d:b1:
         e3:bb:44:b8:96:fb:47:94:c0:bd:32:a6:ff:fb:40:b5:da:3e:
         c0:78:05:d9
-----BEGIN CERTIFICATE REQUEST-----
MIIC3TCCAcUCAQAwgZcxCzAJBgNVBAYTAlVTMQswCQYDVQQIDAJOWTERMA8GA1UE
BwwIU3lyYWN1c2UxGDAWBgNVBAoMD1NpbXBsZSBTREZTIE9SRzERMA8GA1UECwwI
UmVzZWFyY2gxGzAZBgNVBAMMEnd3dy5zaW1wbGVzZGZzLmNvbTEeMBwGCSqGSIb3
DQEJARYPYWFwYXRpbEBzeXIuZWR1MIIBIjANBgkqhkiG9w0BAQEFAAOCAQ8AMIIB
CgKCAQEAxE3zjQPBHD40FxBoTsisgfwCarXdwZ3f0UCkuuLOFt8Oc8kF81vkpB+m
khbgONAzU/Exzd1d1/2MADfoVGk+oZZyJQxngbWIgcpNlreShUUT2CQ5gfyXGuOv
YIl237ysxwk5HwuRSZ45/Uc2p44zfOUp4FIPpta3YJNaaumk6KB+SXGpXLjhNSqM
RwO90nEnccbbn4I384FNrgv8LNV/O+xtT+SasiHrUnUYObtRKO1S81BzKzU4ZJLd
kw7nqJAf+8TeBSrjIbrWxdOkgLozpNeyAEjqvp02q4YHVUOS0i8EW6hQpMcOPIWd
806rZ9DndESo0ct67AAFXmWQEcP5MQIDAQABoAAwDQYJKoZIhvcNAQELBQADggEB
ALAiG2uV7tz++cNzP8fwYscZXOGFFp8hVuk8tNnJeAkxtorY3tQktf8WLfZaew6r
Ghr3aZPeeUdQr3ZBsHXsAfGk92K21+lsYtLp8K8N+0mzKLosov0hDtayuAAofAaG
D6SlkAD7OS2CsRu1vz9BG+/2SrylPXkB06/U2Q86STwcS53vKQf2CKxul6lb3wff
dOxMHF/bo72kxYrqdUtGoUM1EjyPJA+dD/i3wisp6cWI97TiYz/TnpD1KqEJCiR2
lqSOS2mKR7DBe/CFxKKRdjQUsAZwl85ikIniQw1RAh9Aakb9Sdpz+RQNseO7RLiW
+0eUwL0ypv/7QLXaPsB4Bdk=
-----END CERTIFICATE REQUEST-----
